target datalayout = "e-m:e-p270:32:32-p271:32:32-p272:64:64-i64:64-i128:128-f80:128-n8:16:32:64-S128"
target triple = "x86_64-pc-linux-gnu"

%struct.CVodeMemRec = type { double, ptr, ptr, i32, i32, i32, double, double, ptr, i32, ptr, ptr, i32, ptr, i32, i32, double, double, ptr, i32, i32, i32, ptr, ptr, ptr, i32, i32, ptr, ptr, ptr, i32, double, i32, i32, double, ptr, ptr, i32, ptr, ptr, i32, i32, i32, double, ptr, ptr, [13 x ptr], ptr, ptr, ptr, ptr, ptr, [13 x ptr], ptr, ptr, ptr, ptr, [13 x ptr], ptr, ptr, ptr, ptr, ptr, i32, [13 x ptr], ptr, ptr, ptr, ptr, ptr, i32, double, i32, i32, i32, i32, i32, double, double, double, double, double, double, double, double, [14 x double], [6 x double], [13 x double], double, double, double, double, double, double, double, double, double, double, double, i32, ptr, i32, i64, i32, i32, i32, i32, i32, double, double, double, i64, i64, i64, i64, i64, i64, i64, i64, i64, ptr, i64, i64, ptr, i64, i64, i64, i64, i64, i64, i32, i64, i64, i64, i64, i64, i64, double, double, double, ptr, ptr, ptr, ptr, ptr, i32, i32, i64, double, double, double, i32, double, i32, i32, i32, i32, i32, i32, i32, i32, i32, i32, i32, i32, i32, i32, i32, i32, ptr, ptr, ptr, i32, [6 x [4 x double]], i32, i64, ptr, i32, ptr, ptr, double, double, double, ptr, ptr, ptr, double, double, i32, i32, i64, ptr, i32, i32, ptr, i32 }

@.str = private unnamed_addr constant [7 x i8] c"CVODES\00", align 1
@.str.2 = private unnamed_addr constant [26 x i8] c"cvode_mem = NULL illegal.\00", align 1
@.str.57 = private unnamed_addr constant [24 x i8] c"CVodeGetIntegratorStats\00", align 1

; Function Attrs: nounwind uwtable
define i32 @CVodeGetIntegratorStats(ptr noundef %0, ptr noundef %1, ptr noundef %2, ptr noundef %3, ptr noundef %4, ptr noundef %5, ptr noundef %6, ptr noundef %7, ptr noundef %8, ptr noundef %9, ptr noundef %10) #0 {
  %12 = alloca i32, align 4
  %13 = alloca ptr, align 8
  %14 = alloca ptr, align 8
  %15 = alloca ptr, align 8
  %16 = alloca ptr, align 8
  %17 = alloca ptr, align 8
  %18 = alloca ptr, align 8
  %19 = alloca ptr, align 8
  %20 = alloca ptr, align 8
  %21 = alloca ptr, align 8
  %22 = alloca ptr, align 8
  %23 = alloca ptr, align 8
  %24 = alloca ptr, align 8
  %25 = alloca i32, align 4
  store ptr %0, ptr %13, align 8, !tbaa !3
  store ptr %1, ptr %14, align 8, !tbaa !72
  store ptr %2, ptr %15, align 8, !tbaa !72
  store ptr %3, ptr %16, align 8, !tbaa !72
  store ptr %4, ptr %17, align 8, !tbaa !72
  store ptr %5, ptr %18, align 8, !tbaa !49
  store ptr %6, ptr %19, align 8, !tbaa !49
  store ptr %7, ptr %20, align 8, !tbaa !60
  store ptr %8, ptr %21, align 8, !tbaa !60
  store ptr %9, ptr %22, align 8, !tbaa !60
  store ptr %10, ptr %23, align 8, !tbaa !60
  call void @llvm.lifetime.start.p0(i64 8, ptr %24) #5
  %26 = load ptr, ptr %13, align 8, !tbaa !3
  %27 = icmp eq ptr %26, null
  br i1 %27, label %28, label %29

28:                                               ; preds = %11
  call void (ptr, i32, ptr, ptr, ptr, ...) @cvProcessError(ptr noundef null, i32 noundef -21, ptr noundef @.str, ptr noundef @.str.57, ptr noundef @.str.2)
  store i32 -21, ptr %12, align 4
  store i32 1, ptr %25, align 4
  br label %71

29:                                               ; preds = %11
  %30 = load ptr, ptr %13, align 8, !tbaa !3
  store ptr %30, ptr %24, align 8, !tbaa !7
  %31 = load ptr, ptr %24, align 8, !tbaa !7
  %32 = getelementptr inbounds nuw %struct.CVodeMemRec, ptr %31, i32 0, i32 111
  %33 = load i64, ptr %32, align 8, !tbaa !40
  %34 = load ptr, ptr %14, align 8, !tbaa !72
  store i64 %33, ptr %34, align 8, !tbaa !31
  %35 = load ptr, ptr %24, align 8, !tbaa !7
  %36 = getelementptr inbounds nuw %struct.CVodeMemRec, ptr %35, i32 0, i32 112
  %37 = load i64, ptr %36, align 8, !tbaa !73
  %38 = load ptr, ptr %15, align 8, !tbaa !72
  store i64 %37, ptr %38, align 8, !tbaa !31
  %39 = load ptr, ptr %24, align 8, !tbaa !7
  %40 = getelementptr inbounds nuw %struct.CVodeMemRec, ptr %39, i32 0, i32 128
  %41 = load i64, ptr %40, align 8, !tbaa !74
  %42 = load ptr, ptr %16, align 8, !tbaa !72
  store i64 %41, ptr %42, align 8, !tbaa !31
  %43 = load ptr, ptr %24, align 8, !tbaa !7
  %44 = getelementptr inbounds nuw %struct.CVodeMemRec, ptr %43, i32 0, i32 124
  %45 = load i64, ptr %44, align 8, !tbaa !75
  %46 = load ptr, ptr %17, align 8, !tbaa !72
  store i64 %45, ptr %46, align 8, !tbaa !31
  %47 = load ptr, ptr %24, align 8, !tbaa !7
  %48 = getelementptr inbounds nuw %struct.CVodeMemRec, ptr %47, i32 0, i32 146
  %49 = load i32, ptr %48, align 4, !tbaa !76
  %50 = load ptr, ptr %18, align 8, !tbaa !49
  store i32 %49, ptr %50, align 4, !tbaa !24
  %51 = load ptr, ptr %24, align 8, !tbaa !7
  %52 = getelementptr inbounds nuw %struct.CVodeMemRec, ptr %51, i32 0, i32 74
  %53 = load i32, ptr %52, align 8, !tbaa !77
  %54 = load ptr, ptr %19, align 8, !tbaa !49
  store i32 %53, ptr %54, align 4, !tbaa !24
  %55 = load ptr, ptr %24, align 8, !tbaa !7
  %56 = getelementptr inbounds nuw %struct.CVodeMemRec, ptr %55, i32 0, i32 148
  %57 = load double, ptr %56, align 8, !tbaa !79
  %58 = load ptr, ptr %20, align 8, !tbaa !60
  store double %57, ptr %58, align 8, !tbaa !36
  %59 = load ptr, ptr %24, align 8, !tbaa !7
  %60 = getelementptr inbounds nuw %struct.CVodeMemRec, ptr %59, i32 0, i32 149
  %61 = load double, ptr %60, align 8, !tbaa !80
  %62 = load ptr, ptr %21, align 8, !tbaa !60
  store double %61, ptr %62, align 8, !tbaa !36
  %63 = load ptr, ptr %24, align 8, !tbaa !7
  %64 = getelementptr inbounds nuw %struct.CVodeMemRec, ptr %63, i32 0, i32 80
  %65 = load double, ptr %64, align 8, !tbaa !81
  %66 = load ptr, ptr %22, align 8, !tbaa !60
  store double %65, ptr %66, align 8, !tbaa !36
  %67 = load ptr, ptr %24, align 8, !tbaa !7
  %68 = getelementptr inbounds nuw %struct.CVodeMemRec, ptr %67, i32 0, i32 83
  %69 = load double, ptr %68, align 8, !tbaa !41
  %70 = load ptr, ptr %23, align 8, !tbaa !60
  store double %69, ptr %70, align 8, !tbaa !36
  store i32 0, ptr %12, align 4
  store i32 1, ptr %25, align 4
  br label %71

71:                                               ; preds = %29, %28
  call void @llvm.lifetime.end.p0(i64 8, ptr %24) #5
  %72 = load i32, ptr %12, align 4
  ret i32 %72
}