; Function Attrs: nounwind uwtable
define range(i32 -21, 1) i32 @CVodeGetIntegratorStats(ptr noundef readonly captures(address_is_null) %0, ptr noundef writeonly captures(none) %1, ptr noundef writeonly captures(none) %2, ptr noundef writeonly captures(none) %3, ptr noundef writeonly captures(none) %4, ptr noundef writeonly captures(none) %5, ptr noundef writeonly captures(none) %6, ptr noundef writeonly captures(none) %7, ptr noundef writeonly captures(none) %8, ptr noundef writeonly captures(none) %9, ptr noundef writeonly captures(none) %10) local_unnamed_addr #0 {
  %12 = icmp eq ptr %0, null
  br i1 %12, label %13, label %14

13:                                               ; preds = %11
  tail call void (ptr, i32, ptr, ptr, ptr, ...) @cvProcessError(ptr noundef null, i32 noundef -21, ptr noundef nonnull @.str, ptr noundef nonnull @.str.57, ptr noundef nonnull @.str.2) #6
  br label %35

14:                                               ; preds = %11
  %15 = getelementptr inbounds nuw i8, ptr %0, i64 1432
  %16 = load i64, ptr %15, align 8, !tbaa !33
  store i64 %16, ptr %1, align 8, !tbaa !65
  %17 = getelementptr inbounds nuw i8, ptr %0, i64 1440
  %18 = load i64, ptr %17, align 8, !tbaa !66
  store i64 %18, ptr %2, align 8, !tbaa !65
  %19 = getelementptr inbounds nuw i8, ptr %0, i64 1568
  %20 = load i64, ptr %19, align 8, !tbaa !67
  store i64 %20, ptr %3, align 8, !tbaa !65
  %21 = getelementptr inbounds nuw i8, ptr %0, i64 1536
  %22 = load i64, ptr %21, align 8, !tbaa !68
  store i64 %22, ptr %4, align 8, !tbaa !65
  %23 = getelementptr inbounds nuw i8, ptr %0, i64 1708
  %24 = load i32, ptr %23, align 4, !tbaa !69
  store i32 %24, ptr %5, align 4, !tbaa !44
  %25 = getelementptr inbounds nuw i8, ptr %0, i64 920
  %26 = load i32, ptr %25, align 8, !tbaa !70
  store i32 %26, ptr %6, align 4, !tbaa !44
  %27 = getelementptr inbounds nuw i8, ptr %0, i64 1720
  %28 = load double, ptr %27, align 8, !tbaa !72
  store double %28, ptr %7, align 8, !tbaa !57
  %29 = getelementptr inbounds nuw i8, ptr %0, i64 1728
  %30 = load double, ptr %29, align 8, !tbaa !73
  store double %30, ptr %8, align 8, !tbaa !57
  %31 = getelementptr inbounds nuw i8, ptr %0, i64 960
  %32 = load double, ptr %31, align 8, !tbaa !74
  store double %32, ptr %9, align 8, !tbaa !57
  %33 = getelementptr inbounds nuw i8, ptr %0, i64 984
  %34 = load double, ptr %33, align 8, !tbaa !34
  store double %34, ptr %10, align 8, !tbaa !57
  br label %35

35:                                               ; preds = %14, %13
  %.0 = phi i32 [ -21, %13 ], [ 0, %14 ]
  ret i32 %.0
}